; Function Attrs: mustprogress nounwind willreturn uwtable
define internal noundef i32 @archive_compressor_xz_free(ptr noundef captures(none) %0) #4 {
  %2 = getelementptr inbounds nuw i8, ptr %0, i64 72
  %3 = load ptr, ptr %2, align 8, !tbaa !14
  %4 = getelementptr inbounds nuw i8, ptr %3, i64 296
  %5 = load ptr, ptr %4, align 8, !tbaa !27
  tail call void @free(ptr noundef %5) #13
  tail call void @free(ptr noundef %3) #13
  store ptr null, ptr %2, align 8, !tbaa !14
  ret i32 0
}